target datalayout = "e-m:e-p270:32:32-p271:32:32-p272:64:64-i64:64-i128:128-f80:128-n8:16:32:64-S128"
target triple = "x86_64-pc-linux-gnu"

%struct._VAConfigAttrib = type { i32, i32 }
%struct.AVCodecContext = type { ptr, i32, i32, ptr, i32, i32, ptr, ptr, ptr, i64, i32, i32, ptr, i32, %struct.AVRational, %struct.AVRational, %struct.AVRational, i32, i32, i32, i32, i32, %struct.AVRational, i32, i32, i32, i32, i32, i32, i32, i32, i32, i32, i32, ptr, ptr, i32, float, float, float, float, float, float, float, float, float, i32, i32, i32, i32, i32, i32, i32, i32, i32, i32, i32, i32, ptr, ptr, ptr, i32, i32, i32, i32, i32, i32, i32, i32, i32, i32, %struct.AVChannelLayout, i32, i32, i32, i32, i32, i32, i32, i32, ptr, i32, i32, i32, float, float, i32, i32, i32, i32, i32, ptr, i64, i64, float, float, i32, i32, ptr, ptr, i32, i32, i32, i32, i32, ptr, ptr, ptr, ptr, i32, i32, [8 x i64], i32, i32, i32, i32, i32, i32, i32, ptr, ptr, i32, i32, i32, i32, i32, i32, i32, i32, i32, i32, ptr, ptr, i32, i32, ptr, ptr, ptr, ptr, i32, i32, i64, i32, i32, i64, ptr, i64, ptr, i32, ptr, i32 }
%struct.AVRational = type { i32, i32 }
%struct.AVChannelLayout = type { i32, i32, %union.anon, ptr }
%union.anon = type { i64 }
%struct.VAAPIEncodeContext = type { %struct.FFHWBaseEncodeContext, ptr, i32, i32, i32, i32, i32, i32, ptr, ptr, i32, i32, i32, i32, i32, i32, [4 x %struct._VAConfigAttrib], i32, i32, i32, ptr, ptr, [4 x i32], [4 x ptr], [4 x i64], i32, %struct._VAEncMiscParameterRateControl, %struct._VAEncMiscParameterHRD, %struct._VAEncMiscParameterFrameRate, %struct._VAEncMiscParameterBufferMaxFrameSize, %struct._VAEncMiscParameterBufferQualityLevel, ptr, ptr, i32, i32, i32, i32, i32, i32, [20 x i32], [22 x i32], [21 x i32], [23 x i32], i32, i32, ptr, i32, i32 }
%struct.FFHWBaseEncodeContext = type { ptr, ptr, ptr, i32, i32, i32, i32, i32, i32, ptr, ptr, ptr, ptr, ptr, ptr, ptr, ptr, [2 x ptr], i32, i64, i64, i64, i64, i64, i64, i64, [112 x i64], i32, i32, i32, i32, i32, i32, i32, i32, i32, i32, i32, i32, i32, i32, i32, i32, ptr, i32, ptr, i32, ptr }
%struct._VAEncMiscParameterRateControl = type { i32, i32, i32, i32, i32, i32, %union.anon.0, i32, i32, i32, i32, [4 x i32] }
%union.anon.0 = type { %struct.anon }
%struct.anon = type { i32 }
%struct._VAEncMiscParameterHRD = type { i32, i32, [4 x i32] }
%struct._VAEncMiscParameterFrameRate = type { i32, %union.anon.1, [4 x i32] }
%union.anon.1 = type { %struct.anon.2 }
%struct.anon.2 = type { i32 }
%struct._VAEncMiscParameterBufferMaxFrameSize = type { i32, i32, [4 x i32] }
%struct._VAEncMiscParameterBufferQualityLevel = type { i32, [4 x i32] }
%struct.AVVAAPIDeviceContext = type { ptr, i32 }

@__const.vaapi_encode_init_packed_headers.attr = private unnamed_addr constant %struct._VAConfigAttrib { i32 10, i32 0 }, align 4
@.str.144 = private unnamed_addr constant [52 x i8] c"Failed to query packed headers attribute: %d (%s).\0A\00", align 1
@.str.145 = private unnamed_addr constant [58 x i8] c"Driver does not support any packed headers (wanted %#x).\0A\00", align 1
@.str.146 = private unnamed_addr constant [59 x i8] c"Driver does not support any packed headers (none wanted).\0A\00", align 1
@.str.147 = private unnamed_addr constant [77 x i8] c"Driver does not support some wanted packed headers (wanted %#x, found %#x).\0A\00", align 1
@.str.148 = private unnamed_addr constant [62 x i8] c"All wanted packed headers available (wanted %#x, found %#x).\0A\00", align 1
@.str.149 = private unnamed_addr constant [84 x i8] c"Driver does not support packed sequence headers, but a global header is requested.\0A\00", align 1
@.str.150 = private unnamed_addr constant [140 x i8] c"No global header will be written: this may result in a stream which is not usable for some purposes (e.g. not muxable to some containers).\0A\00", align 1

; Function Attrs: cold nounwind optsize uwtable
define internal i32 @vaapi_encode_init_packed_headers(ptr noundef %0) #2 {
  %2 = alloca i32, align 4
  %3 = alloca ptr, align 8
  %4 = alloca ptr, align 8
  %5 = alloca i32, align 4
  %6 = alloca %struct._VAConfigAttrib, align 4
  %7 = alloca i32, align 4
  %8 = alloca %struct._VAConfigAttrib, align 4
  store ptr %0, ptr %3, align 8, !tbaa !4
  call void @llvm.lifetime.start.p0(i64 8, ptr %4) #10
  %9 = load ptr, ptr %3, align 8, !tbaa !4
  %10 = getelementptr inbounds nuw %struct.AVCodecContext, ptr %9, i32 0, i32 6
  %11 = load ptr, ptr %10, align 8, !tbaa !11
  store ptr %11, ptr %4, align 8, !tbaa !33
  call void @llvm.lifetime.start.p0(i64 4, ptr %5) #10
  call void @llvm.lifetime.start.p0(i64 8, ptr %6) #10
  call void @llvm.memcpy.p0.p0.i64(ptr align 4 %6, ptr align 4 @__const.vaapi_encode_init_packed_headers.attr, i64 8, i1 false)
  %12 = load ptr, ptr %4, align 8, !tbaa !33
  %13 = getelementptr inbounds nuw %struct.VAAPIEncodeContext, ptr %12, i32 0, i32 20
  %14 = load ptr, ptr %13, align 8, !tbaa !62
  %15 = getelementptr inbounds nuw %struct.AVVAAPIDeviceContext, ptr %14, i32 0, i32 0
  %16 = load ptr, ptr %15, align 8, !tbaa !75
  %17 = load ptr, ptr %4, align 8, !tbaa !33
  %18 = getelementptr inbounds nuw %struct.VAAPIEncodeContext, ptr %17, i32 0, i32 11
  %19 = load i32, ptr %18, align 4, !tbaa !77
  %20 = load ptr, ptr %4, align 8, !tbaa !33
  %21 = getelementptr inbounds nuw %struct.VAAPIEncodeContext, ptr %20, i32 0, i32 12
  %22 = load i32, ptr %21, align 8, !tbaa !78
  %23 = call i32 @vaGetConfigAttributes(ptr noundef %16, i32 noundef %19, i32 noundef %22, ptr noundef %6, i32 noundef 1)
  store i32 %23, ptr %5, align 4, !tbaa !37
  %24 = load i32, ptr %5, align 4, !tbaa !37
  %25 = icmp ne i32 %24, 0
  br i1 %25, label %26, label %31

26:                                               ; preds = %1
  %27 = load ptr, ptr %3, align 8, !tbaa !4
  %28 = load i32, ptr %5, align 4, !tbaa !37
  %29 = load i32, ptr %5, align 4, !tbaa !37
  %30 = call ptr @vaErrorStr(i32 noundef %29)
  call void (ptr, i32, ptr, ...) @av_log(ptr noundef %27, i32 noundef 16, ptr noundef @.str.144, i32 noundef %28, ptr noundef %30)
  store i32 -542398533, ptr %2, align 4
  store i32 1, ptr %7, align 4
  br label %123

31:                                               ; preds = %1
  %32 = getelementptr inbounds nuw %struct._VAConfigAttrib, ptr %6, i32 0, i32 1
  %33 = load i32, ptr %32, align 4, !tbaa !149
  %34 = icmp eq i32 %33, -2147483648
  br i1 %34, label %35, label %50

35:                                               ; preds = %31
  %36 = load ptr, ptr %4, align 8, !tbaa !33
  %37 = getelementptr inbounds nuw %struct.VAAPIEncodeContext, ptr %36, i32 0, i32 7
  %38 = load i32, ptr %37, align 4, !tbaa !208
  %39 = icmp ne i32 %38, 0
  br i1 %39, label %40, label %45

40:                                               ; preds = %35
  %41 = load ptr, ptr %3, align 8, !tbaa !4
  %42 = load ptr, ptr %4, align 8, !tbaa !33
  %43 = getelementptr inbounds nuw %struct.VAAPIEncodeContext, ptr %42, i32 0, i32 7
  %44 = load i32, ptr %43, align 4, !tbaa !208
  call void (ptr, i32, ptr, ...) @av_log(ptr noundef %41, i32 noundef 24, ptr noundef @.str.145, i32 noundef %44)
  br label %47

45:                                               ; preds = %35
  %46 = load ptr, ptr %3, align 8, !tbaa !4
  call void (ptr, i32, ptr, ...) @av_log(ptr noundef %46, i32 noundef 40, ptr noundef @.str.146)
  br label %47

47:                                               ; preds = %45, %40
  %48 = load ptr, ptr %4, align 8, !tbaa !33
  %49 = getelementptr inbounds nuw %struct.VAAPIEncodeContext, ptr %48, i32 0, i32 15
  store i32 0, ptr %49, align 4, !tbaa !99
  br label %82

50:                                               ; preds = %31
  %51 = load ptr, ptr %4, align 8, !tbaa !33
  %52 = getelementptr inbounds nuw %struct.VAAPIEncodeContext, ptr %51, i32 0, i32 7
  %53 = load i32, ptr %52, align 4, !tbaa !208
  %54 = getelementptr inbounds nuw %struct._VAConfigAttrib, ptr %6, i32 0, i32 1
  %55 = load i32, ptr %54, align 4, !tbaa !149
  %56 = xor i32 %55, -1
  %57 = and i32 %53, %56
  %58 = icmp ne i32 %57, 0
  br i1 %58, label %59, label %66

59:                                               ; preds = %50
  %60 = load ptr, ptr %3, align 8, !tbaa !4
  %61 = load ptr, ptr %4, align 8, !tbaa !33
  %62 = getelementptr inbounds nuw %struct.VAAPIEncodeContext, ptr %61, i32 0, i32 7
  %63 = load i32, ptr %62, align 4, !tbaa !208
  %64 = getelementptr inbounds nuw %struct._VAConfigAttrib, ptr %6, i32 0, i32 1
  %65 = load i32, ptr %64, align 4, !tbaa !149
  call void (ptr, i32, ptr, ...) @av_log(ptr noundef %60, i32 noundef 24, ptr noundef @.str.147, i32 noundef %63, i32 noundef %65)
  br label %73

66:                                               ; preds = %50
  %67 = load ptr, ptr %3, align 8, !tbaa !4
  %68 = load ptr, ptr %4, align 8, !tbaa !33
  %69 = getelementptr inbounds nuw %struct.VAAPIEncodeContext, ptr %68, i32 0, i32 7
  %70 = load i32, ptr %69, align 4, !tbaa !208
  %71 = getelementptr inbounds nuw %struct._VAConfigAttrib, ptr %6, i32 0, i32 1
  %72 = load i32, ptr %71, align 4, !tbaa !149
  call void (ptr, i32, ptr, ...) @av_log(ptr noundef %67, i32 noundef 40, ptr noundef @.str.148, i32 noundef %70, i32 noundef %72)
  br label %73

73:                                               ; preds = %66, %59
  %74 = load ptr, ptr %4, align 8, !tbaa !33
  %75 = getelementptr inbounds nuw %struct.VAAPIEncodeContext, ptr %74, i32 0, i32 7
  %76 = load i32, ptr %75, align 4, !tbaa !208
  %77 = getelementptr inbounds nuw %struct._VAConfigAttrib, ptr %6, i32 0, i32 1
  %78 = load i32, ptr %77, align 4, !tbaa !149
  %79 = and i32 %76, %78
  %80 = load ptr, ptr %4, align 8, !tbaa !33
  %81 = getelementptr inbounds nuw %struct.VAAPIEncodeContext, ptr %80, i32 0, i32 15
  store i32 %79, ptr %81, align 4, !tbaa !99
  br label %82

82:                                               ; preds = %73, %47
  %83 = load ptr, ptr %4, align 8, !tbaa !33
  %84 = getelementptr inbounds nuw %struct.VAAPIEncodeContext, ptr %83, i32 0, i32 15
  %85 = load i32, ptr %84, align 4, !tbaa !99
  %86 = icmp ne i32 %85, 0
  br i1 %86, label %87, label %101

87:                                               ; preds = %82
  %88 = load ptr, ptr %4, align 8, !tbaa !33
  %89 = getelementptr inbounds nuw %struct.VAAPIEncodeContext, ptr %88, i32 0, i32 16
  %90 = load ptr, ptr %4, align 8, !tbaa !33
  %91 = getelementptr inbounds nuw %struct.VAAPIEncodeContext, ptr %90, i32 0, i32 17
  %92 = load i32, ptr %91, align 8, !tbaa !79
  %93 = add nsw i32 %92, 1
  store i32 %93, ptr %91, align 8, !tbaa !79
  %94 = sext i32 %92 to i64
  %95 = getelementptr inbounds [4 x %struct._VAConfigAttrib], ptr %89, i64 0, i64 %94
  %96 = getelementptr inbounds nuw %struct._VAConfigAttrib, ptr %8, i32 0, i32 0
  store i32 10, ptr %96, align 4, !tbaa !147
  %97 = getelementptr inbounds nuw %struct._VAConfigAttrib, ptr %8, i32 0, i32 1
  %98 = load ptr, ptr %4, align 8, !tbaa !33
  %99 = getelementptr inbounds nuw %struct.VAAPIEncodeContext, ptr %98, i32 0, i32 15
  %100 = load i32, ptr %99, align 4, !tbaa !99
  store i32 %100, ptr %97, align 4, !tbaa !149
  call void @llvm.memcpy.p0.p0.i64(ptr align 8 %95, ptr align 4 %8, i64 8, i1 false), !tbaa.struct !150
  br label %101

101:                                              ; preds = %87, %82
  %102 = load ptr, ptr %4, align 8, !tbaa !33
  %103 = getelementptr inbounds nuw %struct.VAAPIEncodeContext, ptr %102, i32 0, i32 7
  %104 = load i32, ptr %103, align 4, !tbaa !208
  %105 = and i32 %104, 1
  %106 = icmp ne i32 %105, 0
  br i1 %106, label %107, label %122

107:                                              ; preds = %101
  %108 = load ptr, ptr %4, align 8, !tbaa !33
  %109 = getelementptr inbounds nuw %struct.VAAPIEncodeContext, ptr %108, i32 0, i32 15
  %110 = load i32, ptr %109, align 4, !tbaa !99
  %111 = and i32 %110, 1
  %112 = icmp ne i32 %111, 0
  br i1 %112, label %122, label %113

113:                                              ; preds = %107
  %114 = load ptr, ptr %3, align 8, !tbaa !4
  %115 = getelementptr inbounds nuw %struct.AVCodecContext, ptr %114, i32 0, i32 10
  %116 = load i32, ptr %115, align 8, !tbaa !101
  %117 = and i32 %116, 4194304
  %118 = icmp ne i32 %117, 0
  br i1 %118, label %119, label %122

119:                                              ; preds = %113
  %120 = load ptr, ptr %3, align 8, !tbaa !4
  call void (ptr, i32, ptr, ...) @av_log(ptr noundef %120, i32 noundef 24, ptr noundef @.str.149)
  %121 = load ptr, ptr %3, align 8, !tbaa !4
  call void (ptr, i32, ptr, ...) @av_log(ptr noundef %121, i32 noundef 24, ptr noundef @.str.150)
  br label %122

122:                                              ; preds = %119, %113, %107, %101
  store i32 0, ptr %2, align 4
  store i32 1, ptr %7, align 4
  br label %123

123:                                              ; preds = %122, %26
  call void @llvm.lifetime.end.p0(i64 8, ptr %6) #10
  call void @llvm.lifetime.end.p0(i64 4, ptr %5) #10
  call void @llvm.lifetime.end.p0(i64 8, ptr %4) #10
  %124 = load i32, ptr %2, align 4
  ret i32 %124
}