; Function Attrs: cold nounwind optsize uwtable
define internal fastcc range(i32 -542398533, 1) i32 @vaapi_encode_init_packed_headers(ptr noundef %0) unnamed_addr #2 {
  %2 = alloca %struct._VAConfigAttrib, align 8
  %3 = getelementptr inbounds nuw i8, ptr %0, i64 32
  %4 = load ptr, ptr %3, align 8, !tbaa !4
  call void @llvm.lifetime.start.p0(i64 8, ptr nonnull %2) #9
  store i64 10, ptr %2, align 8
  %5 = getelementptr inbounds nuw i8, ptr %4, i64 1312
  %6 = load ptr, ptr %5, align 8, !tbaa !52
  %7 = load ptr, ptr %6, align 8, !tbaa !65
  %8 = getelementptr inbounds nuw i8, ptr %4, i64 1244
  %9 = load i32, ptr %8, align 4, !tbaa !67
  %10 = getelementptr inbounds nuw i8, ptr %4, i64 1248
  %11 = load i32, ptr %10, align 8, !tbaa !68
  %12 = call i32 @vaGetConfigAttributes(ptr noundef %7, i32 noundef %9, i32 noundef %11, ptr noundef nonnull %2, i32 noundef 1) #9
  %.not = icmp eq i32 %12, 0
  br i1 %.not, label %15, label %13

13:                                               ; preds = %1
  %14 = call ptr @vaErrorStr(i32 noundef %12) #9
  call void (ptr, i32, ptr, ...) @av_log(ptr noundef nonnull %0, i32 noundef 16, ptr noundef nonnull @.str.144, i32 noundef %12, ptr noundef %14) #9
  br label %55

15:                                               ; preds = %1
  %16 = getelementptr inbounds nuw i8, ptr %2, i64 4
  %17 = load i32, ptr %16, align 4, !tbaa !132
  %18 = icmp eq i32 %17, -2147483648
  %19 = getelementptr inbounds nuw i8, ptr %4, i64 1220
  %20 = load i32, ptr %19, align 4, !tbaa !174
  br i1 %18, label %21, label %25

21:                                               ; preds = %15
  %.not33 = icmp eq i32 %20, 0
  br i1 %.not33, label %23, label %22

22:                                               ; preds = %21
  call void (ptr, i32, ptr, ...) @av_log(ptr noundef nonnull %0, i32 noundef 24, ptr noundef nonnull @.str.145, i32 noundef %20) #9
  br label %.thread

23:                                               ; preds = %21
  call void (ptr, i32, ptr, ...) @av_log(ptr noundef nonnull %0, i32 noundef 40, ptr noundef nonnull @.str.146) #9
  br label %.thread

.thread:                                          ; preds = %22, %23
  %24 = getelementptr inbounds nuw i8, ptr %4, i64 1260
  store i32 0, ptr %24, align 4, !tbaa !89
  br label %42

25:                                               ; preds = %15
  %26 = xor i32 %17, -1
  %27 = and i32 %20, %26
  %.not32 = icmp eq i32 %27, 0
  br i1 %.not32, label %29, label %28

28:                                               ; preds = %25
  call void (ptr, i32, ptr, ...) @av_log(ptr noundef nonnull %0, i32 noundef 24, ptr noundef nonnull @.str.147, i32 noundef %20, i32 noundef %17) #9
  br label %30

29:                                               ; preds = %25
  call void (ptr, i32, ptr, ...) @av_log(ptr noundef nonnull %0, i32 noundef 40, ptr noundef nonnull @.str.148, i32 noundef %20, i32 noundef %17) #9
  br label %30

30:                                               ; preds = %28, %29
  %31 = load i32, ptr %19, align 4, !tbaa !174
  %32 = load i32, ptr %16, align 4, !tbaa !132
  %33 = and i32 %32, %31
  %34 = getelementptr inbounds nuw i8, ptr %4, i64 1260
  store i32 %33, ptr %34, align 4, !tbaa !89
  %.not34 = icmp eq i32 %33, 0
  br i1 %.not34, label %42, label %35

35:                                               ; preds = %30
  %36 = getelementptr inbounds nuw i8, ptr %4, i64 1264
  %37 = getelementptr inbounds nuw i8, ptr %4, i64 1296
  %38 = load i32, ptr %37, align 8, !tbaa !69
  %39 = add nsw i32 %38, 1
  store i32 %39, ptr %37, align 8, !tbaa !69
  %40 = sext i32 %38 to i64
  %41 = getelementptr inbounds [4 x %struct._VAConfigAttrib], ptr %36, i64 0, i64 %40
  store i32 10, ptr %41, align 8, !tbaa !109
  %.sroa.2.0..sroa_idx = getelementptr inbounds nuw i8, ptr %41, i64 4
  store i32 %33, ptr %.sroa.2.0..sroa_idx, align 4, !tbaa !109
  br label %42

42:                                               ; preds = %.thread, %35, %30
  %43 = getelementptr inbounds nuw i8, ptr %4, i64 1220
  %44 = load i32, ptr %43, align 4, !tbaa !174
  %45 = and i32 %44, 1
  %.not35 = icmp eq i32 %45, 0
  br i1 %.not35, label %55, label %46

46:                                               ; preds = %42
  %47 = getelementptr inbounds nuw i8, ptr %4, i64 1260
  %48 = load i32, ptr %47, align 4, !tbaa !89
  %49 = and i32 %48, 1
  %.not36 = icmp eq i32 %49, 0
  br i1 %.not36, label %50, label %55

50:                                               ; preds = %46
  %51 = getelementptr inbounds nuw i8, ptr %0, i64 64
  %52 = load i32, ptr %51, align 8, !tbaa !91
  %53 = and i32 %52, 4194304
  %.not37 = icmp eq i32 %53, 0
  br i1 %.not37, label %55, label %54

54:                                               ; preds = %50
  call void (ptr, i32, ptr, ...) @av_log(ptr noundef nonnull %0, i32 noundef 24, ptr noundef nonnull @.str.149) #9
  call void (ptr, i32, ptr, ...) @av_log(ptr noundef nonnull %0, i32 noundef 24, ptr noundef nonnull @.str.150) #9
  br label %55

55:                                               ; preds = %42, %46, %50, %54, %13
  %.0 = phi i32 [ -542398533, %13 ], [ 0, %54 ], [ 0, %50 ], [ 0, %46 ], [ 0, %42 ]
  call void @llvm.lifetime.end.p0(i64 8, ptr nonnull %2) #9
  ret i32 %.0
}